target datalayout = "e-m:e-p270:32:32-p271:32:32-p272:64:64-i64:64-i128:128-f80:128-n8:16:32:64-S128"
target triple = "x86_64-pc-linux-gnu"

; Function Attrs: mustprogress nounwind uwtable
define internal noundef ptr @_ZN6icu_77L18expandGroupLengthsEPKhPtS2_(ptr noundef %0, ptr noundef %1, ptr noundef %2) #6 {
  %4 = alloca ptr, align 8
  %5 = alloca ptr, align 8
  %6 = alloca ptr, align 8
  %7 = alloca i16, align 2
  %8 = alloca i16, align 2
  %9 = alloca i16, align 2
  %10 = alloca i8, align 1
  store ptr %0, ptr %4, align 8, !tbaa !9
  store ptr %1, ptr %5, align 8, !tbaa !32
  store ptr %2, ptr %6, align 8, !tbaa !32
  call void @llvm.lifetime.start.p0(i64 2, ptr %7) #12
  store i16 0, ptr %7, align 2, !tbaa !26
  call void @llvm.lifetime.start.p0(i64 2, ptr %8) #12
  store i16 0, ptr %8, align 2, !tbaa !26
  call void @llvm.lifetime.start.p0(i64 2, ptr %9) #12
  store i16 0, ptr %9, align 2, !tbaa !26
  call void @llvm.lifetime.start.p0(i64 1, ptr %10) #12
  br label %11

11:                                               ; preds = %99, %3
  %12 = load i16, ptr %7, align 2, !tbaa !26
  %13 = zext i16 %12 to i64
  %14 = icmp slt i64 %13, 32
  br i1 %14, label %15, label %100

15:                                               ; preds = %11
  %16 = load ptr, ptr %4, align 8, !tbaa !9
  %17 = getelementptr inbounds nuw i8, ptr %16, i32 1
  store ptr %17, ptr %4, align 8, !tbaa !9
  %18 = load i8, ptr %16, align 1, !tbaa !27
  store i8 %18, ptr %10, align 1, !tbaa !27
  %19 = load i16, ptr %9, align 2, !tbaa !26
  %20 = zext i16 %19 to i32
  %21 = icmp sge i32 %20, 12
  br i1 %21, label %22, label %37

22:                                               ; preds = %15
  %23 = load i16, ptr %9, align 2, !tbaa !26
  %24 = zext i16 %23 to i32
  %25 = and i32 %24, 3
  %26 = shl i32 %25, 4
  %27 = load i8, ptr %10, align 1, !tbaa !27
  %28 = zext i8 %27 to i32
  %29 = ashr i32 %28, 4
  %30 = or i32 %26, %29
  %31 = add nsw i32 %30, 12
  %32 = trunc i32 %31 to i16
  store i16 %32, ptr %9, align 2, !tbaa !26
  %33 = load i8, ptr %10, align 1, !tbaa !27
  %34 = zext i8 %33 to i32
  %35 = and i32 %34, 15
  %36 = trunc i32 %35 to i8
  store i8 %36, ptr %10, align 1, !tbaa !27
  br label %57

37:                                               ; preds = %15
  %38 = load i8, ptr %10, align 1, !tbaa !27
  %39 = zext i8 %38 to i32
  %40 = icmp sge i32 %39, 192
  br i1 %40, label %41, label %47

41:                                               ; preds = %37
  %42 = load i8, ptr %10, align 1, !tbaa !27
  %43 = zext i8 %42 to i32
  %44 = and i32 %43, 63
  %45 = add nsw i32 %44, 12
  %46 = trunc i32 %45 to i16
  store i16 %46, ptr %9, align 2, !tbaa !26
  br label %56

47:                                               ; preds = %37
  %48 = load i8, ptr %10, align 1, !tbaa !27
  %49 = zext i8 %48 to i32
  %50 = ashr i32 %49, 4
  %51 = trunc i32 %50 to i16
  store i16 %51, ptr %9, align 2, !tbaa !26
  %52 = load i8, ptr %10, align 1, !tbaa !27
  %53 = zext i8 %52 to i32
  %54 = and i32 %53, 15
  %55 = trunc i32 %54 to i8
  store i8 %55, ptr %10, align 1, !tbaa !27
  br label %56

56:                                               ; preds = %47, %41
  br label %57

57:                                               ; preds = %56, %22
  %58 = load i16, ptr %8, align 2, !tbaa !26
  %59 = load ptr, ptr %5, align 8, !tbaa !32
  %60 = getelementptr inbounds nuw i16, ptr %59, i32 1
  store ptr %60, ptr %5, align 8, !tbaa !32
  store i16 %58, ptr %59, align 2, !tbaa !26
  %61 = load i16, ptr %9, align 2, !tbaa !26
  %62 = load ptr, ptr %6, align 8, !tbaa !32
  %63 = getelementptr inbounds nuw i16, ptr %62, i32 1
  store ptr %63, ptr %6, align 8, !tbaa !32
  store i16 %61, ptr %62, align 2, !tbaa !26
  %64 = load i16, ptr %9, align 2, !tbaa !26
  %65 = zext i16 %64 to i32
  %66 = load i16, ptr %8, align 2, !tbaa !26
  %67 = zext i16 %66 to i32
  %68 = add nsw i32 %67, %65
  %69 = trunc i32 %68 to i16
  store i16 %69, ptr %8, align 2, !tbaa !26
  %70 = load i16, ptr %7, align 2, !tbaa !26
  %71 = add i16 %70, 1
  store i16 %71, ptr %7, align 2, !tbaa !26
  %72 = load i8, ptr %10, align 1, !tbaa !27
  %73 = zext i8 %72 to i32
  %74 = and i32 %73, 240
  %75 = icmp eq i32 %74, 0
  br i1 %75, label %76, label %98

76:                                               ; preds = %57
  %77 = load i8, ptr %10, align 1, !tbaa !27
  %78 = zext i8 %77 to i16
  store i16 %78, ptr %9, align 2, !tbaa !26
  %79 = load i16, ptr %9, align 2, !tbaa !26
  %80 = zext i16 %79 to i32
  %81 = icmp slt i32 %80, 12
  br i1 %81, label %82, label %97

82:                                               ; preds = %76
  %83 = load i16, ptr %8, align 2, !tbaa !26
  %84 = load ptr, ptr %5, align 8, !tbaa !32
  %85 = getelementptr inbounds nuw i16, ptr %84, i32 1
  store ptr %85, ptr %5, align 8, !tbaa !32
  store i16 %83, ptr %84, align 2, !tbaa !26
  %86 = load i16, ptr %9, align 2, !tbaa !26
  %87 = load ptr, ptr %6, align 8, !tbaa !32
  %88 = getelementptr inbounds nuw i16, ptr %87, i32 1
  store ptr %88, ptr %6, align 8, !tbaa !32
  store i16 %86, ptr %87, align 2, !tbaa !26
  %89 = load i16, ptr %9, align 2, !tbaa !26
  %90 = zext i16 %89 to i32
  %91 = load i16, ptr %8, align 2, !tbaa !26
  %92 = zext i16 %91 to i32
  %93 = add nsw i32 %92, %90
  %94 = trunc i32 %93 to i16
  store i16 %94, ptr %8, align 2, !tbaa !26
  %95 = load i16, ptr %7, align 2, !tbaa !26
  %96 = add i16 %95, 1
  store i16 %96, ptr %7, align 2, !tbaa !26
  br label %97

97:                                               ; preds = %82, %76
  br label %99

98:                                               ; preds = %57
  store i16 0, ptr %9, align 2, !tbaa !26
  br label %99

99:                                               ; preds = %98, %97
  br label %11, !llvm.loop !100

100:                                              ; preds = %11
  %101 = load ptr, ptr %4, align 8, !tbaa !9
  call void @llvm.lifetime.end.p0(i64 1, ptr %10) #12
  call void @llvm.lifetime.end.p0(i64 2, ptr %9) #12
  call void @llvm.lifetime.end.p0(i64 2, ptr %8) #12
  call void @llvm.lifetime.end.p0(i64 2, ptr %7) #12
  ret ptr %101
}