; Function Attrs: mustprogress nofree norecurse nosync nounwind memory(argmem: readwrite) uwtable
define internal fastcc noundef nonnull ptr @_ZN6icu_77L18expandGroupLengthsEPKhPtS2_(ptr noundef readonly %0, ptr noundef nonnull writeonly captures(none) %1, ptr noundef nonnull writeonly captures(none) %2) unnamed_addr #8 {
  br label %4

4:                                                ; preds = %3, %39
  %.02749 = phi i16 [ 0, %3 ], [ %.2, %39 ]
  %.02848 = phi i16 [ 0, %3 ], [ %.129, %39 ]
  %.03047 = phi i16 [ 0, %3 ], [ %.131, %39 ]
  %.03246 = phi ptr [ %2, %3 ], [ %.133, %39 ]
  %.03445 = phi ptr [ %1, %3 ], [ %.135, %39 ]
  %.03644 = phi ptr [ %0, %3 ], [ %5, %39 ]
  %5 = getelementptr inbounds nuw i8, ptr %.03644, i64 1
  %6 = load i8, ptr %.03644, align 1, !tbaa !26
  %7 = icmp samesign ugt i16 %.02749, 11
  br i1 %7, label %8, label %15

8:                                                ; preds = %4
  %9 = shl nuw nsw i16 %.02749, 4
  %10 = and i16 %9, 48
  %11 = lshr i8 %6, 4
  %12 = zext nneg i8 %11 to i16
  %13 = or disjoint i16 %10, 12
  %14 = add nuw nsw i16 %13, %12
  br label %27

15:                                               ; preds = %4
  %16 = icmp ugt i8 %6, -65
  br i1 %16, label %20, label %17

17:                                               ; preds = %15
  %18 = lshr i8 %6, 4
  %19 = zext nneg i8 %18 to i16
  br label %27

20:                                               ; preds = %15
  %21 = and i8 %6, 63
  %narrow = add nuw nsw i8 %21, 12
  %22 = zext nneg i8 %narrow to i16
  %23 = getelementptr inbounds nuw i8, ptr %.03445, i64 2
  store i16 %.02848, ptr %.03445, align 2, !tbaa !32
  %24 = getelementptr inbounds nuw i8, ptr %.03246, i64 2
  store i16 %22, ptr %.03246, align 2, !tbaa !32
  %25 = add i16 %.02848, %22
  %26 = add nuw nsw i16 %.03047, 1
  br label %39

27:                                               ; preds = %8, %17
  %.1.ph = phi i16 [ %19, %17 ], [ %14, %8 ]
  %.0.ph = and i8 %6, 15
  %28 = getelementptr inbounds nuw i8, ptr %.03445, i64 2
  store i16 %.02848, ptr %.03445, align 2, !tbaa !32
  %29 = getelementptr inbounds nuw i8, ptr %.03246, i64 2
  store i16 %.1.ph, ptr %.03246, align 2, !tbaa !32
  %30 = add i16 %.1.ph, %.02848
  %31 = add nuw nsw i16 %.03047, 1
  %32 = zext nneg i8 %.0.ph to i16
  %33 = icmp samesign ult i8 %.0.ph, 12
  br i1 %33, label %34, label %39

34:                                               ; preds = %27
  %35 = getelementptr inbounds nuw i8, ptr %.03445, i64 4
  store i16 %30, ptr %28, align 2, !tbaa !32
  %36 = getelementptr inbounds nuw i8, ptr %.03246, i64 4
  store i16 %32, ptr %29, align 2, !tbaa !32
  %37 = add i16 %30, %32
  %38 = add nuw nsw i16 %.03047, 2
  br label %39

39:                                               ; preds = %20, %27, %34
  %.135 = phi ptr [ %35, %34 ], [ %28, %27 ], [ %23, %20 ]
  %.133 = phi ptr [ %36, %34 ], [ %29, %27 ], [ %24, %20 ]
  %.131 = phi i16 [ %38, %34 ], [ %31, %27 ], [ %26, %20 ]
  %.129 = phi i16 [ %37, %34 ], [ %30, %27 ], [ %25, %20 ]
  %.2 = phi i16 [ %32, %34 ], [ %32, %27 ], [ 0, %20 ]
  %40 = icmp ult i16 %.131, 32
  br i1 %40, label %4, label %41, !llvm.loop !43

41:                                               ; preds = %39
  ret ptr %5
}